; ModuleID = '21/319.c'
source_filename = "21/319.c"
target datalayout = "e-m:e-p270:32:32-p271:32:32-p272:64:64-i64:64-f80:128-n8:16:32:64-S128"
target triple = "x86_64-pc-linux-gnu"

@.str = private unnamed_addr constant [3 x i8] c"%d\00", align 1
@.str.1 = private unnamed_addr constant [6 x i8] c"%d,%d\00", align 1

; Function Attrs: noinline nounwind uwtable
define dso_local void @main() #0 {
  %1 = alloca i32, align 4
  %2 = alloca [300 x i32], align 16
  %3 = alloca i32, align 4
  %4 = alloca i32, align 4
  %5 = alloca i32, align 4
  %6 = alloca i32, align 4
  %7 = alloca i32, align 4
  %8 = alloca float, align 4
  store i32 0, i32* %6, align 4
  store i32 0, i32* %7, align 4
  %9 = call i32 (i8*, ...) @__isoc99_scanf(i8* getelementptr inbounds ([3 x i8], [3 x i8]* @.str, i64 0, i64 0), i32* %1)
  store i32 0, i32* %3, align 4
  br label %10

10:                                               ; preds = %19, %0
  %11 = load i32, i32* %3, align 4
  %12 = load i32, i32* %1, align 4
  %13 = icmp slt i32 %11, %12
  br i1 %13, label %14, label %22

14:                                               ; preds = %10
  %15 = load i32, i32* %3, align 4
  %16 = sext i32 %15 to i64
  %17 = getelementptr inbounds [300 x i32], [300 x i32]* %2, i64 0, i64 %16
  %18 = call i32 (i8*, ...) @__isoc99_scanf(i8* getelementptr inbounds ([3 x i8], [3 x i8]* @.str, i64 0, i64 0), i32* %17)
  br label %19

19:                                               ; preds = %14
  %20 = load i32, i32* %3, align 4
  %21 = add nsw i32 %20, 1
  store i32 %21, i32* %3, align 4
  br label %10

22:                                               ; preds = %10
  store i32 0, i32* %3, align 4
  br label %23

23:                                               ; preds = %34, %22
  %24 = load i32, i32* %3, align 4
  %25 = load i32, i32* %1, align 4
  %26 = icmp slt i32 %24, %25
  br i1 %26, label %27, label %37

27:                                               ; preds = %23
  %28 = load i32, i32* %7, align 4
  %29 = load i32, i32* %3, align 4
  %30 = sext i32 %29 to i64
  %31 = getelementptr inbounds [300 x i32], [300 x i32]* %2, i64 0, i64 %30
  %32 = load i32, i32* %31, align 4
  %33 = add nsw i32 %28, %32
  store i32 %33, i32* %7, align 4
  br label %34

34:                                               ; preds = %27
  %35 = load i32, i32* %3, align 4
  %36 = add nsw i32 %35, 1
  store i32 %36, i32* %3, align 4
  br label %23

37:                                               ; preds = %23
  %38 = load i32, i32* %7, align 4
  %39 = sitofp i32 %38 to float
  %40 = load i32, i32* %1, align 4
  %41 = sitofp i32 %40 to float
  %42 = fdiv float %39, %41
  store float %42, float* %8, align 4
  %43 = getelementptr inbounds [300 x i32], [300 x i32]* %2, i64 0, i64 0
  %44 = load i32, i32* %43, align 16
  store i32 %44, i32* %4, align 4
  store i32 1, i32* %3, align 4
  br label %45

45:                                               ; preds = %95, %37
  %46 = load i32, i32* %3, align 4
  %47 = load i32, i32* %1, align 4
  %48 = icmp slt i32 %46, %47
  br i1 %48, label %49, label %98

49:                                               ; preds = %45
  %50 = load i32, i32* %3, align 4
  %51 = sext i32 %50 to i64
  %52 = getelementptr inbounds [300 x i32], [300 x i32]* %2, i64 0, i64 %51
  %53 = load i32, i32* %52, align 4
  %54 = sitofp i32 %53 to float
  %55 = load float, float* %8, align 4
  %56 = fsub float %54, %55
  %57 = fpext float %56 to double
  %58 = call double @llvm.fabs.f64(double %57)
  %59 = load i32, i32* %4, align 4
  %60 = sitofp i32 %59 to float
  %61 = load float, float* %8, align 4
  %62 = fsub float %60, %61
  %63 = fpext float %62 to double
  %64 = call double @llvm.fabs.f64(double %63)
  %65 = fcmp ogt double %58, %64
  br i1 %65, label %66, label %71

66:                                               ; preds = %49
  %67 = load i32, i32* %3, align 4
  %68 = sext i32 %67 to i64
  %69 = getelementptr inbounds [300 x i32], [300 x i32]* %2, i64 0, i64 %68
  %70 = load i32, i32* %69, align 4
  store i32 %70, i32* %4, align 4
  br label %94

71:                                               ; preds = %49
  %72 = load i32, i32* %3, align 4
  %73 = sext i32 %72 to i64
  %74 = getelementptr inbounds [300 x i32], [300 x i32]* %2, i64 0, i64 %73
  %75 = load i32, i32* %74, align 4
  %76 = sitofp i32 %75 to float
  %77 = load float, float* %8, align 4
  %78 = fsub float %76, %77
  %79 = fpext float %78 to double
  %80 = call double @llvm.fabs.f64(double %79)
  %81 = load i32, i32* %4, align 4
  %82 = sitofp i32 %81 to float
  %83 = load float, float* %8, align 4
  %84 = fsub float %82, %83
  %85 = fpext float %84 to double
  %86 = call double @llvm.fabs.f64(double %85)
  %87 = fcmp oeq double %80, %86
  br i1 %87, label %88, label %93

88:                                               ; preds = %71
  store i32 1, i32* %6, align 4
  %89 = load i32, i32* %3, align 4
  %90 = sext i32 %89 to i64
  %91 = getelementptr inbounds [300 x i32], [300 x i32]* %2, i64 0, i64 %90
  %92 = load i32, i32* %91, align 4
  store i32 %92, i32* %5, align 4
  br label %93

93:                                               ; preds = %88, %71
  br label %94

94:                                               ; preds = %93, %66
  br label %95

95:                                               ; preds = %94
  %96 = load i32, i32* %3, align 4
  %97 = add nsw i32 %96, 1
  store i32 %97, i32* %3, align 4
  br label %45

98:                                               ; preds = %45
  %99 = load i32, i32* %6, align 4
  %100 = icmp eq i32 %99, 0
  br i1 %100, label %101, label %104

101:                                              ; preds = %98
  %102 = load i32, i32* %4, align 4
  %103 = call i32 (i8*, ...) @printf(i8* getelementptr inbounds ([3 x i8], [3 x i8]* @.str, i64 0, i64 0), i32 %102)
  br label %108

104:                                              ; preds = %98
  %105 = load i32, i32* %4, align 4
  %106 = load i32, i32* %5, align 4
  %107 = call i32 (i8*, ...) @printf(i8* getelementptr inbounds ([6 x i8], [6 x i8]* @.str.1, i64 0, i64 0), i32 %105, i32 %106)
  br label %108

108:                                              ; preds = %104, %101
  ret void
}

declare dso_local i32 @__isoc99_scanf(i8*, ...) #1

; Function Attrs: nounwind readnone speculatable willreturn
declare double @llvm.fabs.f64(double) #2

declare dso_local i32 @printf(i8*, ...) #1


!llvm.module.flags = !{!0}
!llvm.ident = !{!1}

!0 = !{i32 1, !"wchar_size", i32 4}
!1 = !{!"clang version 10.0.0-4ubuntu1 "}
